target datalayout = "e-m:e-p270:32:32-p271:32:32-p272:64:64-i64:64-i128:128-f80:128-n8:16:32:64-S128"
target triple = "x86_64-pc-linux-gnu"

%struct.stbtt_vertex = type { i16, i16, i16, i16, i16, i16, i8, i8 }
%struct.stbtt__csctx = type { i32, i32, float, float, float, float, i32, i32, i32, i32, ptr, i32 }

; Function Attrs: nounwind uwtable
define internal void @stbtt_setvertex(ptr noundef %0, i8 noundef zeroext %1, i32 noundef %2, i32 noundef %3, i32 noundef %4, i32 noundef %5) #0 {
  %7 = alloca ptr, align 8
  %8 = alloca i8, align 1
  %9 = alloca i32, align 4
  %10 = alloca i32, align 4
  %11 = alloca i32, align 4
  %12 = alloca i32, align 4
  store ptr %0, ptr %7, align 8
  store i8 %1, ptr %8, align 1
  store i32 %2, ptr %9, align 4
  store i32 %3, ptr %10, align 4
  store i32 %4, ptr %11, align 4
  store i32 %5, ptr %12, align 4
  %13 = load i8, ptr %8, align 1
  %14 = load ptr, ptr %7, align 8
  %15 = getelementptr inbounds nuw %struct.stbtt_vertex, ptr %14, i32 0, i32 6
  store i8 %13, ptr %15, align 2
  %16 = load i32, ptr %9, align 4
  %17 = trunc i32 %16 to i16
  %18 = load ptr, ptr %7, align 8
  %19 = getelementptr inbounds nuw %struct.stbtt_vertex, ptr %18, i32 0, i32 0
  store i16 %17, ptr %19, align 2
  %20 = load i32, ptr %10, align 4
  %21 = trunc i32 %20 to i16
  %22 = load ptr, ptr %7, align 8
  %23 = getelementptr inbounds nuw %struct.stbtt_vertex, ptr %22, i32 0, i32 1
  store i16 %21, ptr %23, align 2
  %24 = load i32, ptr %11, align 4
  %25 = trunc i32 %24 to i16
  %26 = load ptr, ptr %7, align 8
  %27 = getelementptr inbounds nuw %struct.stbtt_vertex, ptr %26, i32 0, i32 2
  store i16 %25, ptr %27, align 2
  %28 = load i32, ptr %12, align 4
  %29 = trunc i32 %28 to i16
  %30 = load ptr, ptr %7, align 8
  %31 = getelementptr inbounds nuw %struct.stbtt_vertex, ptr %30, i32 0, i32 3
  store i16 %29, ptr %31, align 2
  ret void
}

; Function Attrs: nounwind uwtable
define internal void @stbtt__track_vertex(ptr noundef %0, i32 noundef %1, i32 noundef %2) #0 {
  %4 = alloca ptr, align 8
  %5 = alloca i32, align 4
  %6 = alloca i32, align 4
  store ptr %0, ptr %4, align 8
  store i32 %1, ptr %5, align 4
  store i32 %2, ptr %6, align 4
  %7 = load i32, ptr %5, align 4
  %8 = load ptr, ptr %4, align 8
  %9 = getelementptr inbounds nuw %struct.stbtt__csctx, ptr %8, i32 0, i32 7
  %10 = load i32, ptr %9, align 4
  %11 = icmp sgt i32 %7, %10
  br i1 %11, label %17, label %12

12:                                               ; preds = %3
  %13 = load ptr, ptr %4, align 8
  %14 = getelementptr inbounds nuw %struct.stbtt__csctx, ptr %13, i32 0, i32 1
  %15 = load i32, ptr %14, align 4
  %16 = icmp ne i32 %15, 0
  br i1 %16, label %21, label %17

17:                                               ; preds = %12, %3
  %18 = load i32, ptr %5, align 4
  %19 = load ptr, ptr %4, align 8
  %20 = getelementptr inbounds nuw %struct.stbtt__csctx, ptr %19, i32 0, i32 7
  store i32 %18, ptr %20, align 4
  br label %21

21:                                               ; preds = %17, %12
  %22 = load i32, ptr %6, align 4
  %23 = load ptr, ptr %4, align 8
  %24 = getelementptr inbounds nuw %struct.stbtt__csctx, ptr %23, i32 0, i32 9
  %25 = load i32, ptr %24, align 4
  %26 = icmp sgt i32 %22, %25
  br i1 %26, label %32, label %27

27:                                               ; preds = %21
  %28 = load ptr, ptr %4, align 8
  %29 = getelementptr inbounds nuw %struct.stbtt__csctx, ptr %28, i32 0, i32 1
  %30 = load i32, ptr %29, align 4
  %31 = icmp ne i32 %30, 0
  br i1 %31, label %36, label %32

32:                                               ; preds = %27, %21
  %33 = load i32, ptr %6, align 4
  %34 = load ptr, ptr %4, align 8
  %35 = getelementptr inbounds nuw %struct.stbtt__csctx, ptr %34, i32 0, i32 9
  store i32 %33, ptr %35, align 4
  br label %36

36:                                               ; preds = %32, %27
  %37 = load i32, ptr %5, align 4
  %38 = load ptr, ptr %4, align 8
  %39 = getelementptr inbounds nuw %struct.stbtt__csctx, ptr %38, i32 0, i32 6
  %40 = load i32, ptr %39, align 8
  %41 = icmp slt i32 %37, %40
  br i1 %41, label %47, label %42

42:                                               ; preds = %36
  %43 = load ptr, ptr %4, align 8
  %44 = getelementptr inbounds nuw %struct.stbtt__csctx, ptr %43, i32 0, i32 1
  %45 = load i32, ptr %44, align 4
  %46 = icmp ne i32 %45, 0
  br i1 %46, label %51, label %47

47:                                               ; preds = %42, %36
  %48 = load i32, ptr %5, align 4
  %49 = load ptr, ptr %4, align 8
  %50 = getelementptr inbounds nuw %struct.stbtt__csctx, ptr %49, i32 0, i32 6
  store i32 %48, ptr %50, align 8
  br label %51

51:                                               ; preds = %47, %42
  %52 = load i32, ptr %6, align 4
  %53 = load ptr, ptr %4, align 8
  %54 = getelementptr inbounds nuw %struct.stbtt__csctx, ptr %53, i32 0, i32 8
  %55 = load i32, ptr %54, align 8
  %56 = icmp slt i32 %52, %55
  br i1 %56, label %62, label %57

57:                                               ; preds = %51
  %58 = load ptr, ptr %4, align 8
  %59 = getelementptr inbounds nuw %struct.stbtt__csctx, ptr %58, i32 0, i32 1
  %60 = load i32, ptr %59, align 4
  %61 = icmp ne i32 %60, 0
  br i1 %61, label %66, label %62

62:                                               ; preds = %57, %51
  %63 = load i32, ptr %6, align 4
  %64 = load ptr, ptr %4, align 8
  %65 = getelementptr inbounds nuw %struct.stbtt__csctx, ptr %64, i32 0, i32 8
  store i32 %63, ptr %65, align 8
  br label %66

66:                                               ; preds = %62, %57
  %67 = load ptr, ptr %4, align 8
  %68 = getelementptr inbounds nuw %struct.stbtt__csctx, ptr %67, i32 0, i32 1
  store i32 1, ptr %68, align 4
  ret void
}

; Function Attrs: nounwind uwtable
define internal void @stbtt__csctx_v(ptr noundef %0, i8 noundef zeroext %1, i32 noundef %2, i32 noundef %3, i32 noundef %4, i32 noundef %5, i32 noundef %6, i32 noundef %7) #0 {
  %9 = alloca ptr, align 8
  %10 = alloca i8, align 1
  %11 = alloca i32, align 4
  %12 = alloca i32, align 4
  %13 = alloca i32, align 4
  %14 = alloca i32, align 4
  %15 = alloca i32, align 4
  %16 = alloca i32, align 4
  store ptr %0, ptr %9, align 8
  store i8 %1, ptr %10, align 1
  store i32 %2, ptr %11, align 4
  store i32 %3, ptr %12, align 4
  store i32 %4, ptr %13, align 4
  store i32 %5, ptr %14, align 4
  store i32 %6, ptr %15, align 4
  store i32 %7, ptr %16, align 4
  %17 = load ptr, ptr %9, align 8
  %18 = getelementptr inbounds nuw %struct.stbtt__csctx, ptr %17, i32 0, i32 0
  %19 = load i32, ptr %18, align 8
  %20 = icmp ne i32 %19, 0
  br i1 %20, label %21, label %36

21:                                               ; preds = %8
  %22 = load ptr, ptr %9, align 8
  %23 = load i32, ptr %11, align 4
  %24 = load i32, ptr %12, align 4
  call void @stbtt__track_vertex(ptr noundef %22, i32 noundef %23, i32 noundef %24)
  %25 = load i8, ptr %10, align 1
  %26 = zext i8 %25 to i32
  %27 = icmp eq i32 %26, 4
  br i1 %27, label %28, label %35

28:                                               ; preds = %21
  %29 = load ptr, ptr %9, align 8
  %30 = load i32, ptr %13, align 4
  %31 = load i32, ptr %14, align 4
  call void @stbtt__track_vertex(ptr noundef %29, i32 noundef %30, i32 noundef %31)
  %32 = load ptr, ptr %9, align 8
  %33 = load i32, ptr %15, align 4
  %34 = load i32, ptr %16, align 4
  call void @stbtt__track_vertex(ptr noundef %32, i32 noundef %33, i32 noundef %34)
  br label %35

35:                                               ; preds = %28, %21
  br label %72

36:                                               ; preds = %8
  %37 = load ptr, ptr %9, align 8
  %38 = getelementptr inbounds nuw %struct.stbtt__csctx, ptr %37, i32 0, i32 10
  %39 = load ptr, ptr %38, align 8
  %40 = load ptr, ptr %9, align 8
  %41 = getelementptr inbounds nuw %struct.stbtt__csctx, ptr %40, i32 0, i32 11
  %42 = load i32, ptr %41, align 8
  %43 = sext i32 %42 to i64
  %44 = getelementptr inbounds %struct.stbtt_vertex, ptr %39, i64 %43
  %45 = load i8, ptr %10, align 1
  %46 = load i32, ptr %11, align 4
  %47 = load i32, ptr %12, align 4
  %48 = load i32, ptr %13, align 4
  %49 = load i32, ptr %14, align 4
  call void @stbtt_setvertex(ptr noundef %44, i8 noundef zeroext %45, i32 noundef %46, i32 noundef %47, i32 noundef %48, i32 noundef %49)
  %50 = load i32, ptr %15, align 4
  %51 = trunc i32 %50 to i16
  %52 = load ptr, ptr %9, align 8
  %53 = getelementptr inbounds nuw %struct.stbtt__csctx, ptr %52, i32 0, i32 10
  %54 = load ptr, ptr %53, align 8
  %55 = load ptr, ptr %9, align 8
  %56 = getelementptr inbounds nuw %struct.stbtt__csctx, ptr %55, i32 0, i32 11
  %57 = load i32, ptr %56, align 8
  %58 = sext i32 %57 to i64
  %59 = getelementptr inbounds %struct.stbtt_vertex, ptr %54, i64 %58
  %60 = getelementptr inbounds nuw %struct.stbtt_vertex, ptr %59, i32 0, i32 4
  store i16 %51, ptr %60, align 2
  %61 = load i32, ptr %16, align 4
  %62 = trunc i32 %61 to i16
  %63 = load ptr, ptr %9, align 8
  %64 = getelementptr inbounds nuw %struct.stbtt__csctx, ptr %63, i32 0, i32 10
  %65 = load ptr, ptr %64, align 8
  %66 = load ptr, ptr %9, align 8
  %67 = getelementptr inbounds nuw %struct.stbtt__csctx, ptr %66, i32 0, i32 11
  %68 = load i32, ptr %67, align 8
  %69 = sext i32 %68 to i64
  %70 = getelementptr inbounds %struct.stbtt_vertex, ptr %65, i64 %69
  %71 = getelementptr inbounds nuw %struct.stbtt_vertex, ptr %70, i32 0, i32 5
  store i16 %62, ptr %71, align 2
  br label %72

72:                                               ; preds = %36, %35
  %73 = load ptr, ptr %9, align 8
  %74 = getelementptr inbounds nuw %struct.stbtt__csctx, ptr %73, i32 0, i32 11
  %75 = load i32, ptr %74, align 8
  %76 = add nsw i32 %75, 1
  store i32 %76, ptr %74, align 8
  ret void
}

; Function Attrs: nounwind uwtable
define internal void @stbtt__csctx_rccurve_to(ptr noundef %0, float noundef %1, float noundef %2, float noundef %3, float noundef %4, float noundef %5, float noundef %6) #0 {
  %8 = alloca ptr, align 8
  %9 = alloca float, align 4
  %10 = alloca float, align 4
  %11 = alloca float, align 4
  %12 = alloca float, align 4
  %13 = alloca float, align 4
  %14 = alloca float, align 4
  %15 = alloca float, align 4
  %16 = alloca float, align 4
  %17 = alloca float, align 4
  %18 = alloca float, align 4
  store ptr %0, ptr %8, align 8
  store float %1, ptr %9, align 4
  store float %2, ptr %10, align 4
  store float %3, ptr %11, align 4
  store float %4, ptr %12, align 4
  store float %5, ptr %13, align 4
  store float %6, ptr %14, align 4
  call void @llvm.lifetime.start.p0(i64 4, ptr %15) #13
  %19 = load ptr, ptr %8, align 8
  %20 = getelementptr inbounds nuw %struct.stbtt__csctx, ptr %19, i32 0, i32 4
  %21 = load float, ptr %20, align 8
  %22 = load float, ptr %9, align 4
  %23 = fadd float %21, %22
  store float %23, ptr %15, align 4
  call void @llvm.lifetime.start.p0(i64 4, ptr %16) #13
  %24 = load ptr, ptr %8, align 8
  %25 = getelementptr inbounds nuw %struct.stbtt__csctx, ptr %24, i32 0, i32 5
  %26 = load float, ptr %25, align 4
  %27 = load float, ptr %10, align 4
  %28 = fadd float %26, %27
  store float %28, ptr %16, align 4
  call void @llvm.lifetime.start.p0(i64 4, ptr %17) #13
  %29 = load float, ptr %15, align 4
  %30 = load float, ptr %11, align 4
  %31 = fadd float %29, %30
  store float %31, ptr %17, align 4
  call void @llvm.lifetime.start.p0(i64 4, ptr %18) #13
  %32 = load float, ptr %16, align 4
  %33 = load float, ptr %12, align 4
  %34 = fadd float %32, %33
  store float %34, ptr %18, align 4
  %35 = load float, ptr %17, align 4
  %36 = load float, ptr %13, align 4
  %37 = fadd float %35, %36
  %38 = load ptr, ptr %8, align 8
  %39 = getelementptr inbounds nuw %struct.stbtt__csctx, ptr %38, i32 0, i32 4
  store float %37, ptr %39, align 8
  %40 = load float, ptr %18, align 4
  %41 = load float, ptr %14, align 4
  %42 = fadd float %40, %41
  %43 = load ptr, ptr %8, align 8
  %44 = getelementptr inbounds nuw %struct.stbtt__csctx, ptr %43, i32 0, i32 5
  store float %42, ptr %44, align 4
  %45 = load ptr, ptr %8, align 8
  %46 = load ptr, ptr %8, align 8
  %47 = getelementptr inbounds nuw %struct.stbtt__csctx, ptr %46, i32 0, i32 4
  %48 = load float, ptr %47, align 8
  %49 = fptosi float %48 to i32
  %50 = load ptr, ptr %8, align 8
  %51 = getelementptr inbounds nuw %struct.stbtt__csctx, ptr %50, i32 0, i32 5
  %52 = load float, ptr %51, align 4
  %53 = fptosi float %52 to i32
  %54 = load float, ptr %15, align 4
  %55 = fptosi float %54 to i32
  %56 = load float, ptr %16, align 4
  %57 = fptosi float %56 to i32
  %58 = load float, ptr %17, align 4
  %59 = fptosi float %58 to i32
  %60 = load float, ptr %18, align 4
  %61 = fptosi float %60 to i32
  call void @stbtt__csctx_v(ptr noundef %45, i8 noundef zeroext 4, i32 noundef %49, i32 noundef %53, i32 noundef %55, i32 noundef %57, i32 noundef %59, i32 noundef %61)
  call void @llvm.lifetime.end.p0(i64 4, ptr %18) #13
  call void @llvm.lifetime.end.p0(i64 4, ptr %17) #13
  call void @llvm.lifetime.end.p0(i64 4, ptr %16) #13
  call void @llvm.lifetime.end.p0(i64 4, ptr %15) #13
  ret void
}